target datalayout = "e-m:e-p270:32:32-p271:32:32-p272:64:64-i64:64-i128:128-f80:128-n8:16:32:64-S128"
target triple = "x86_64-pc-linux-gnu"

%struct.PsqlScanStateData = type { ptr, ptr, ptr, ptr, ptr, ptr, i32, i8, i8, ptr, ptr, i32, i32, i32, i32, ptr, i32, [4 x i8], i32, ptr, ptr }

; Function Attrs: nounwind uwtable
define dso_local ptr @psqlscan_extract_substring(ptr noundef %0, ptr noundef %1, i32 noundef %2) #0 {
  %4 = alloca ptr, align 8
  %5 = alloca ptr, align 8
  %6 = alloca i32, align 4
  %7 = alloca ptr, align 8
  %8 = alloca ptr, align 8
  %9 = alloca i32, align 4
  %10 = alloca i8, align 1
  store ptr %0, ptr %4, align 8
  store ptr %1, ptr %5, align 8
  store i32 %2, ptr %6, align 4
  call void @llvm.lifetime.start.p0(i64 8, ptr %7) #12
  %11 = load i32, ptr %6, align 4
  %12 = add i32 %11, 1
  %13 = sext i32 %12 to i64
  %14 = call ptr @pg_malloc(i64 noundef %13)
  store ptr %14, ptr %7, align 8
  %15 = load ptr, ptr %4, align 8
  %16 = getelementptr inbounds nuw %struct.PsqlScanStateData, ptr %15, i32 0, i32 7
  %17 = load i8, ptr %16, align 4, !range !6, !noundef !7
  %18 = trunc i8 %17 to i1
  br i1 %18, label %19, label %24

19:                                               ; preds = %3
  %20 = load ptr, ptr %7, align 8
  %21 = load ptr, ptr %5, align 8
  %22 = load i32, ptr %6, align 4
  %23 = sext i32 %22 to i64
  call void @llvm.memcpy.p0.p0.i64(ptr align 1 %20, ptr align 1 %21, i64 %23, i1 false)
  br label %66

24:                                               ; preds = %3
  call void @llvm.lifetime.start.p0(i64 8, ptr %8) #12
  %25 = load ptr, ptr %4, align 8
  %26 = getelementptr inbounds nuw %struct.PsqlScanStateData, ptr %25, i32 0, i32 10
  %27 = load ptr, ptr %26, align 8
  store ptr %27, ptr %8, align 8
  call void @llvm.lifetime.start.p0(i64 4, ptr %9) #12
  %28 = load ptr, ptr %5, align 8
  %29 = load ptr, ptr %4, align 8
  %30 = getelementptr inbounds nuw %struct.PsqlScanStateData, ptr %29, i32 0, i32 9
  %31 = load ptr, ptr %30, align 8
  %32 = ptrtoint ptr %28 to i64
  %33 = ptrtoint ptr %31 to i64
  %34 = sub i64 %32, %33
  %35 = load ptr, ptr %8, align 8
  %36 = getelementptr inbounds i8, ptr %35, i64 %34
  store ptr %36, ptr %8, align 8
  store i32 0, ptr %9, align 4
  br label %37

37:                                               ; preds = %62, %24
  %38 = load i32, ptr %9, align 4
  %39 = load i32, ptr %6, align 4
  %40 = icmp slt i32 %38, %39
  br i1 %40, label %41, label %65

41:                                               ; preds = %37
  call void @llvm.lifetime.start.p0(i64 1, ptr %10) #12
  %42 = load ptr, ptr %5, align 8
  %43 = load i32, ptr %9, align 4
  %44 = sext i32 %43 to i64
  %45 = getelementptr inbounds i8, ptr %42, i64 %44
  %46 = load i8, ptr %45, align 1
  store i8 %46, ptr %10, align 1
  %47 = load i8, ptr %10, align 1
  %48 = sext i8 %47 to i32
  %49 = icmp eq i32 %48, -1
  br i1 %49, label %50, label %56

50:                                               ; preds = %41
  %51 = load ptr, ptr %8, align 8
  %52 = load i32, ptr %9, align 4
  %53 = sext i32 %52 to i64
  %54 = getelementptr inbounds i8, ptr %51, i64 %53
  %55 = load i8, ptr %54, align 1
  store i8 %55, ptr %10, align 1
  br label %56

56:                                               ; preds = %50, %41
  %57 = load i8, ptr %10, align 1
  %58 = load ptr, ptr %7, align 8
  %59 = load i32, ptr %9, align 4
  %60 = sext i32 %59 to i64
  %61 = getelementptr inbounds i8, ptr %58, i64 %60
  store i8 %57, ptr %61, align 1
  call void @llvm.lifetime.end.p0(i64 1, ptr %10) #12
  br label %62

62:                                               ; preds = %56
  %63 = load i32, ptr %9, align 4
  %64 = add i32 %63, 1
  store i32 %64, ptr %9, align 4
  br label %37, !llvm.loop !11

65:                                               ; preds = %37
  call void @llvm.lifetime.end.p0(i64 4, ptr %9) #12
  call void @llvm.lifetime.end.p0(i64 8, ptr %8) #12
  br label %66

66:                                               ; preds = %65, %19
  %67 = load ptr, ptr %7, align 8
  %68 = load i32, ptr %6, align 4
  %69 = sext i32 %68 to i64
  %70 = getelementptr inbounds i8, ptr %67, i64 %69
  store i8 0, ptr %70, align 1
  %71 = load ptr, ptr %7, align 8
  call void @llvm.lifetime.end.p0(i64 8, ptr %7) #12
  ret ptr %71
}