; Function Attrs: nounwind uwtable
define dso_local ptr @psqlscan_extract_substring(ptr noundef readonly captures(none) %0, ptr noundef %1, i32 noundef %2) local_unnamed_addr #0 {
  %4 = add i32 %2, 1
  %5 = sext i32 %4 to i64
  %6 = tail call ptr @pg_malloc(i64 noundef %5) #27
  %7 = getelementptr inbounds nuw i8, ptr %0, i64 52
  %8 = load i8, ptr %7, align 4, !range !6, !noundef !7
  %9 = trunc nuw i8 %8 to i1
  br i1 %9, label %10, label %12

10:                                               ; preds = %3
  %11 = sext i32 %2 to i64
  tail call void @llvm.memcpy.p0.p0.i64(ptr align 1 %6, ptr align 1 %1, i64 %11, i1 false)
  br label %.loopexit

12:                                               ; preds = %3
  %13 = getelementptr inbounds nuw i8, ptr %0, i64 64
  %14 = load ptr, ptr %13, align 8
  %15 = getelementptr inbounds nuw i8, ptr %0, i64 56
  %16 = load ptr, ptr %15, align 8
  %17 = ptrtoint ptr %1 to i64
  %18 = ptrtoint ptr %16 to i64
  %19 = sub i64 %17, %18
  %20 = getelementptr inbounds i8, ptr %14, i64 %19
  %21 = icmp sgt i32 %2, 0
  br i1 %21, label %.lr.ph.preheader, label %.loopexit

.lr.ph.preheader:                                 ; preds = %12
  %wide.trip.count = zext nneg i32 %2 to i64
  br label %.lr.ph

.lr.ph:                                           ; preds = %.lr.ph.preheader, %28
  %indvars.iv = phi i64 [ 0, %.lr.ph.preheader ], [ %indvars.iv.next, %28 ]
  %22 = getelementptr inbounds nuw i8, ptr %1, i64 %indvars.iv
  %23 = load i8, ptr %22, align 1
  %24 = icmp eq i8 %23, -1
  br i1 %24, label %25, label %28

25:                                               ; preds = %.lr.ph
  %26 = getelementptr inbounds nuw i8, ptr %20, i64 %indvars.iv
  %27 = load i8, ptr %26, align 1
  br label %28

28:                                               ; preds = %25, %.lr.ph
  %.0 = phi i8 [ %27, %25 ], [ %23, %.lr.ph ]
  %29 = getelementptr inbounds nuw i8, ptr %6, i64 %indvars.iv
  store i8 %.0, ptr %29, align 1
  %indvars.iv.next = add nuw nsw i64 %indvars.iv, 1
  %exitcond.not = icmp eq i64 %indvars.iv.next, %wide.trip.count
  br i1 %exitcond.not, label %.loopexit, label %.lr.ph, !llvm.loop !9

.loopexit:                                        ; preds = %28, %12, %10
  %30 = sext i32 %2 to i64
  %31 = getelementptr inbounds i8, ptr %6, i64 %30
  store i8 0, ptr %31, align 1
  ret ptr %6
}